target datalayout = "e-m:e-p270:32:32-p271:32:32-p272:64:64-i64:64-i128:128-f80:128-n8:16:32:64-S128"
target triple = "x86_64-pc-linux-gnu"

%struct.Node = type { i32 }
%struct.CreateTableAsStmt = type { i32, ptr, ptr, i32, i8, i8 }
%struct.Query = type { i32, i32, i32, i64, i8, ptr, i32, i8, i8, i8, i8, i8, i8, i8, i8, i8, i8, i8, ptr, ptr, ptr, ptr, ptr, i32, ptr, ptr, i32, ptr, ptr, ptr, ptr, ptr, i8, ptr, ptr, ptr, ptr, ptr, ptr, ptr, i32, ptr, ptr, ptr, ptr, i32, i32 }
%struct.DeclareCursorStmt = type { i32, ptr, i32, ptr }
%struct.ExplainStmt = type { i32, ptr, ptr }

; Function Attrs: nounwind uwtable
define dso_local ptr @UtilityContainsQuery(ptr noundef %0) #0 {
  %2 = alloca ptr, align 8
  %3 = alloca ptr, align 8
  %4 = alloca ptr, align 8
  %5 = alloca i32, align 4
  store ptr %0, ptr %3, align 8
  call void @llvm.lifetime.start.p0(i64 8, ptr %4) #11
  %6 = load ptr, ptr %3, align 8
  %7 = getelementptr inbounds nuw %struct.Node, ptr %6, i32 0, i32 0
  %8 = load i32, ptr %7, align 4
  switch i32 %8, label %54 [
    i32 200, label %9
    i32 240, label %24
    i32 241, label %39
  ]

9:                                                ; preds = %1
  %10 = load ptr, ptr %3, align 8
  %11 = getelementptr inbounds nuw %struct.DeclareCursorStmt, ptr %10, i32 0, i32 3
  %12 = load ptr, ptr %11, align 8
  store ptr %12, ptr %4, align 8
  %13 = load ptr, ptr %4, align 8
  %14 = getelementptr inbounds nuw %struct.Query, ptr %13, i32 0, i32 1
  %15 = load i32, ptr %14, align 4
  %16 = icmp eq i32 %15, 6
  br i1 %16, label %17, label %22

17:                                               ; preds = %9
  %18 = load ptr, ptr %4, align 8
  %19 = getelementptr inbounds nuw %struct.Query, ptr %18, i32 0, i32 5
  %20 = load ptr, ptr %19, align 8
  %21 = call ptr @UtilityContainsQuery(ptr noundef %20)
  store ptr %21, ptr %2, align 8
  store i32 1, ptr %5, align 4
  br label %55

22:                                               ; preds = %9
  %23 = load ptr, ptr %4, align 8
  store ptr %23, ptr %2, align 8
  store i32 1, ptr %5, align 4
  br label %55

24:                                               ; preds = %1
  %25 = load ptr, ptr %3, align 8
  %26 = getelementptr inbounds nuw %struct.ExplainStmt, ptr %25, i32 0, i32 1
  %27 = load ptr, ptr %26, align 8
  store ptr %27, ptr %4, align 8
  %28 = load ptr, ptr %4, align 8
  %29 = getelementptr inbounds nuw %struct.Query, ptr %28, i32 0, i32 1
  %30 = load i32, ptr %29, align 4
  %31 = icmp eq i32 %30, 6
  br i1 %31, label %32, label %37

32:                                               ; preds = %24
  %33 = load ptr, ptr %4, align 8
  %34 = getelementptr inbounds nuw %struct.Query, ptr %33, i32 0, i32 5
  %35 = load ptr, ptr %34, align 8
  %36 = call ptr @UtilityContainsQuery(ptr noundef %35)
  store ptr %36, ptr %2, align 8
  store i32 1, ptr %5, align 4
  br label %55

37:                                               ; preds = %24
  %38 = load ptr, ptr %4, align 8
  store ptr %38, ptr %2, align 8
  store i32 1, ptr %5, align 4
  br label %55

39:                                               ; preds = %1
  %40 = load ptr, ptr %3, align 8
  %41 = getelementptr inbounds nuw %struct.CreateTableAsStmt, ptr %40, i32 0, i32 1
  %42 = load ptr, ptr %41, align 8
  store ptr %42, ptr %4, align 8
  %43 = load ptr, ptr %4, align 8
  %44 = getelementptr inbounds nuw %struct.Query, ptr %43, i32 0, i32 1
  %45 = load i32, ptr %44, align 4
  %46 = icmp eq i32 %45, 6
  br i1 %46, label %47, label %52

47:                                               ; preds = %39
  %48 = load ptr, ptr %4, align 8
  %49 = getelementptr inbounds nuw %struct.Query, ptr %48, i32 0, i32 5
  %50 = load ptr, ptr %49, align 8
  %51 = call ptr @UtilityContainsQuery(ptr noundef %50)
  store ptr %51, ptr %2, align 8
  store i32 1, ptr %5, align 4
  br label %55

52:                                               ; preds = %39
  %53 = load ptr, ptr %4, align 8
  store ptr %53, ptr %2, align 8
  store i32 1, ptr %5, align 4
  br label %55

54:                                               ; preds = %1
  store ptr null, ptr %2, align 8
  store i32 1, ptr %5, align 4
  br label %55

55:                                               ; preds = %54, %52, %47, %37, %32, %22, %17
  call void @llvm.lifetime.end.p0(i64 8, ptr %4) #11
  %56 = load ptr, ptr %2, align 8
  ret ptr %56
}