; Function Attrs: nofree norecurse nosync nounwind memory(read, inaccessiblemem: none) uwtable
define dso_local ptr @UtilityContainsQuery(ptr noundef readonly captures(none) %0) local_unnamed_addr #6 {
  br label %tailrecurse

tailrecurse:                                      ; preds = %tailrecurse.backedge, %1
  %.tr = phi ptr [ %0, %1 ], [ %.tr.be, %tailrecurse.backedge ]
  %2 = load i32, ptr %.tr, align 4
  switch i32 %2, label %22 [
    i32 200, label %3
    i32 240, label %10
    i32 241, label %16
  ]

3:                                                ; preds = %tailrecurse
  %4 = getelementptr inbounds nuw i8, ptr %.tr, i64 24
  %5 = load ptr, ptr %4, align 8
  %6 = getelementptr inbounds nuw i8, ptr %5, i64 4
  %7 = load i32, ptr %6, align 4
  %8 = icmp eq i32 %7, 6
  br i1 %8, label %tailrecurse.backedge, label %22

tailrecurse.backedge:                             ; preds = %3, %16, %10
  %.sink = phi ptr [ %12, %10 ], [ %18, %16 ], [ %5, %3 ]
  %9 = getelementptr inbounds nuw i8, ptr %.sink, i64 32
  %.tr.be = load ptr, ptr %9, align 8
  br label %tailrecurse

10:                                               ; preds = %tailrecurse
  %11 = getelementptr inbounds nuw i8, ptr %.tr, i64 8
  %12 = load ptr, ptr %11, align 8
  %13 = getelementptr inbounds nuw i8, ptr %12, i64 4
  %14 = load i32, ptr %13, align 4
  %15 = icmp eq i32 %14, 6
  br i1 %15, label %tailrecurse.backedge, label %22

16:                                               ; preds = %tailrecurse
  %17 = getelementptr inbounds nuw i8, ptr %.tr, i64 8
  %18 = load ptr, ptr %17, align 8
  %19 = getelementptr inbounds nuw i8, ptr %18, i64 4
  %20 = load i32, ptr %19, align 4
  %21 = icmp eq i32 %20, 6
  br i1 %21, label %tailrecurse.backedge, label %22

22:                                               ; preds = %tailrecurse, %16, %10, %3
  %.0 = phi ptr [ %5, %3 ], [ %12, %10 ], [ %18, %16 ], [ null, %tailrecurse ]
  ret ptr %.0
}